(lp0
S'poi'
p1
aS'bonus'
p2
aS'salary'
p3
aS'total_payments'
p4
aS'deferral_payments'
p5
aS'deferred_income'
p6
aS'expenses'
p7
aS'long_term_incentive'
p8
aS'restricted_stock'
p9
aS'restricted_stock_deferred'
p10
aS'total_stock_value'
p11
aS'shared_receipt_with_poi'
p12
aS'fraction_from_poi'
p13
aS'fraction_to_poi'
p14
aS'director_fees'
p15
a.